target datalayout = "e-m:e-p270:32:32-p271:32:32-p272:64:64-i64:64-i128:128-f80:128-n8:16:32:64-S128"
target triple = "x86_64-unknown-linux-gnu"

%struct.LSIState = type { %struct.PCIDevice, ptr, %struct.MemoryRegion, %struct.MemoryRegion, %struct.MemoryRegion, %struct.AddressSpace, i32, i32, i32, i32, [8 x i8], i32, %struct.SCSIBus, i32, i32, i32, %union.anon.4, ptr, i32, i32, i32, i32, i8, i8, i8, i8, i8, i8, i8, i8, i8, i8, i8, i8, i8, i8, i8, i8, i8, i8, i32, i32, i8, i8, i8, i8, i8, i8, i8, i8, i8, i8, i8, i8, i8, i8, i8, i8, i8, i8, i8, i8, i8, i8, i32, i32, i32, i32, i32, i32, i32, i32, i32, i32, i32, i32, i32, i32, [18 x i32], i8, i32, [8192 x i8] }
%struct.PCIDevice = type { %struct.DeviceState, i8, i8, ptr, ptr, ptr, ptr, ptr, i32, %struct.PCIReqIDCache, [64 x i8], [7 x %struct.PCIIORegion], %struct.AddressSpace, %struct.MemoryRegion, %struct.MemoryRegion, ptr, ptr, [3 x ptr], i8, i8, i32, i8, i32, ptr, ptr, ptr, ptr, ptr, ptr, %struct.MemoryRegion, %struct.MemoryRegion, %struct.MemoryRegion, ptr, i8, i32, i8, %struct.PCIExpressDevice, ptr, ptr, i32, i8, %struct.MemoryRegion, i32, ptr, ptr, ptr, ptr, ptr, i32 }
%struct.DeviceState = type { %struct.Object, ptr, ptr, i8, i8, i64, ptr, i32, i8, ptr, %struct.NamedGPIOListHead, %struct.NamedClockListHead, %struct.BusStateHead, i32, i32, i32, %struct.ResettableState, ptr, %struct.MemReentrancyGuard }
%struct.Object = type { ptr, ptr, ptr, i32, ptr }
%struct.NamedGPIOListHead = type { ptr }
%struct.NamedClockListHead = type { ptr }
%struct.BusStateHead = type { ptr }
%struct.ResettableState = type { i32, i8, i8 }
%struct.MemReentrancyGuard = type { i8 }
%struct.PCIReqIDCache = type { ptr, i32 }
%struct.PCIIORegion = type { i64, i64, i8, ptr, ptr }
%struct.PCIExpressDevice = type { i8, i8, i8, i16, %struct.PCIEAERLog, i16, i16, i16, %struct.PCIESriovPF, %struct.PCIESriovVF }
%struct.PCIEAERLog = type { i16, i16, ptr }
%struct.PCIESriovPF = type { i16, [7 x i8], ptr, ptr }
%struct.PCIESriovVF = type { ptr, i16 }
%struct.MemoryRegion = type { %struct.Object, i8, i8, i8, i8, i8, i8, i8, i8, i8, i8, ptr, ptr, ptr, ptr, ptr, ptr, i32, i128, i64, ptr, i64, i8, i8, i8, i8, i8, ptr, i64, i32, %union.anon.1, %union.anon.2, %union.anon.3, ptr, i32, ptr, ptr, i8 }
%union.anon.1 = type { %struct.QTailQLink }
%struct.QTailQLink = type { ptr, ptr }
%union.anon.2 = type { %struct.QTailQLink }
%union.anon.3 = type { %struct.QTailQLink }
%struct.AddressSpace = type { %struct.rcu_head, ptr, ptr, ptr, i32, i32, ptr, %union.anon, %union.anon.0 }
%struct.rcu_head = type { ptr, ptr }
%union.anon = type { %struct.QTailQLink }
%union.anon.0 = type { %struct.QTailQLink }
%struct.SCSIBus = type { %struct.BusState, i32, %struct.SCSISense, ptr, i32 }
%struct.BusState = type { %struct.Object, ptr, ptr, ptr, i32, i8, i8, i32, %union.BusChildHead, %struct.BusStateEntry, %struct.ResettableState }
%union.BusChildHead = type { %struct.QTailQLink }
%struct.BusStateEntry = type { ptr, ptr }
%struct.SCSISense = type { i8, i8, i8 }
%union.anon.4 = type { %struct.QTailQLink }
%struct.lsi_request = type { ptr, i32, i32, ptr, i32, i32, %union.anon.6 }
%union.anon.6 = type { %struct.QTailQLink }
%struct.timeval = type { i64, i64 }

@.str.11 = private unnamed_addr constant [29 x i8] c"../qemu/hw/scsi/lsi53c895a.c\00", align 1
@trace_events_enabled_count = external global i32, align 4
@message_with_timestamp = external global i8, align 1
@.str.18 = private unnamed_addr constant [19 x i8] c"s->current == NULL\00", align 1
@__PRETTY_FUNCTION__.lsi_reselect = private unnamed_addr constant [45 x i8] c"void lsi_reselect(LSIState *, lsi_request *)\00", align 1
@_TRACE_LSI_RESELECT_DSTATE = external global i16, align 2
@.str.19 = private unnamed_addr constant [48 x i8] c"%d@%zu.%06zu:lsi_reselect Reselected target %d\0A\00", align 1
@.str.20 = private unnamed_addr constant [35 x i8] c"lsi_reselect Reselected target %d\0A\00", align 1
@qemu_loglevel = external global i32, align 4

; Function Attrs: nounwind sspstrong uwtable
define internal zeroext i1 @qemu_loglevel_mask(i32 noundef %mask) #0 {
entry:
  %mask.addr = alloca i32, align 4
  store i32 %mask, ptr %mask.addr, align 4
  %0 = load i32, ptr @qemu_loglevel, align 4
  %1 = load i32, ptr %mask.addr, align 4
  %and = and i32 %0, %1
  %cmp = icmp ne i32 %and, 0
  ret i1 %cmp
}

; Function Attrs: nounwind sspstrong uwtable
define internal void @_nocheck__trace_lsi_reselect(i32 noundef %id) #0 {
entry:
  %id.addr = alloca i32, align 4
  %_now = alloca %struct.timeval, align 8
  store i32 %id, ptr %id.addr, align 4
  %0 = load i32, ptr @trace_events_enabled_count, align 4
  %tobool = icmp ne i32 %0, 0
  %lnot = xor i1 %tobool, true
  %lnot1 = xor i1 %lnot, true
  %lnot.ext = zext i1 %lnot1 to i32
  %conv = sext i32 %lnot.ext to i64
  %tobool2 = icmp ne i64 %conv, 0
  br i1 %tobool2, label %land.lhs.true, label %if.end11

land.lhs.true:                                    ; preds = %entry
  %1 = load i16, ptr @_TRACE_LSI_RESELECT_DSTATE, align 2
  %conv3 = zext i16 %1 to i32
  %tobool4 = icmp ne i32 %conv3, 0
  br i1 %tobool4, label %land.lhs.true5, label %if.end11

land.lhs.true5:                                   ; preds = %land.lhs.true
  %call = call zeroext i1 @qemu_loglevel_mask(i32 noundef 32768)
  br i1 %call, label %if.then, label %if.end11

if.then:                                          ; preds = %land.lhs.true5
  %2 = load i8, ptr @message_with_timestamp, align 1
  %tobool7 = trunc i8 %2 to i1
  br i1 %tobool7, label %if.then8, label %if.else

if.then8:                                         ; preds = %if.then
  %call9 = call i32 @gettimeofday(ptr noundef %_now, ptr noundef null) #10
  %call10 = call i32 @qemu_get_thread_id()
  %tv_sec = getelementptr inbounds %struct.timeval, ptr %_now, i32 0, i32 0
  %3 = load i64, ptr %tv_sec, align 8
  %tv_usec = getelementptr inbounds %struct.timeval, ptr %_now, i32 0, i32 1
  %4 = load i64, ptr %tv_usec, align 8
  %5 = load i32, ptr %id.addr, align 4
  call void (ptr, ...) @qemu_log(ptr noundef @.str.19, i32 noundef %call10, i64 noundef %3, i64 noundef %4, i32 noundef %5)
  br label %if.end

if.else:                                          ; preds = %if.then
  %6 = load i32, ptr %id.addr, align 4
  call void (ptr, ...) @qemu_log(ptr noundef @.str.20, i32 noundef %6)
  br label %if.end

if.end:                                           ; preds = %if.else, %if.then8
  br label %if.end11

if.end11:                                         ; preds = %if.end, %land.lhs.true5, %land.lhs.true, %entry
  ret void
}

; Function Attrs: nounwind sspstrong uwtable
define internal i32 @lsi_irq_on_rsl(ptr noundef %s) #0 {
entry:
  %s.addr = alloca ptr, align 8
  store ptr %s, ptr %s.addr, align 8
  %0 = load ptr, ptr %s.addr, align 8
  %sien0 = getelementptr inbounds %struct.LSIState, ptr %0, i32 0, i32 29
  %1 = load i8, ptr %sien0, align 1
  %conv = zext i8 %1 to i32
  %and = and i32 %conv, 16
  %tobool = icmp ne i32 %and, 0
  br i1 %tobool, label %land.rhs, label %land.end

land.rhs:                                         ; preds = %entry
  %2 = load ptr, ptr %s.addr, align 8
  %scid = getelementptr inbounds %struct.LSIState, ptr %2, i32 0, i32 50
  %3 = load i8, ptr %scid, align 4
  %conv1 = zext i8 %3 to i32
  %and2 = and i32 %conv1, 96
  %tobool3 = icmp ne i32 %and2, 0
  br label %land.end

land.end:                                         ; preds = %land.rhs, %entry
  %4 = phi i1 [ false, %entry ], [ %tobool3, %land.rhs ]
  %land.ext = zext i1 %4 to i32
  ret i32 %land.ext
}

; Function Attrs: nounwind sspstrong uwtable
define internal void @lsi_set_phase(ptr noundef %s, i32 noundef %phase) #0 {
entry:
  %s.addr = alloca ptr, align 8
  %phase.addr = alloca i32, align 4
  store ptr %s, ptr %s.addr, align 8
  store i32 %phase, ptr %phase.addr, align 4
  %0 = load ptr, ptr %s.addr, align 8
  %sbcl = getelementptr inbounds %struct.LSIState, ptr %0, i32 0, i32 56
  %1 = load i8, ptr %sbcl, align 2
  %conv = zext i8 %1 to i32
  %and = and i32 %conv, -8
  %conv1 = trunc i32 %and to i8
  store i8 %conv1, ptr %sbcl, align 2
  %2 = load i32, ptr %phase.addr, align 4
  %or = or i32 %2, 128
  %3 = load ptr, ptr %s.addr, align 8
  %sbcl2 = getelementptr inbounds %struct.LSIState, ptr %3, i32 0, i32 56
  %4 = load i8, ptr %sbcl2, align 2
  %conv3 = zext i8 %4 to i32
  %or4 = or i32 %conv3, %or
  %conv5 = trunc i32 %or4 to i8
  store i8 %conv5, ptr %sbcl2, align 2
  %5 = load ptr, ptr %s.addr, align 8
  %sstat1 = getelementptr inbounds %struct.LSIState, ptr %5, i32 0, i32 49
  %6 = load i8, ptr %sstat1, align 1
  %conv6 = zext i8 %6 to i32
  %and7 = and i32 %conv6, -8
  %7 = load i32, ptr %phase.addr, align 4
  %or8 = or i32 %and7, %7
  %conv9 = trunc i32 %or8 to i8
  %8 = load ptr, ptr %s.addr, align 8
  %sstat110 = getelementptr inbounds %struct.LSIState, ptr %8, i32 0, i32 49
  store i8 %conv9, ptr %sstat110, align 1
  ret void
}

; Function Attrs: nounwind sspstrong uwtable
define internal void @trace_lsi_reselect(i32 noundef %id) #0 {
entry:
  %id.addr = alloca i32, align 4
  store i32 %id, ptr %id.addr, align 4
  %0 = load i32, ptr %id.addr, align 4
  call void @_nocheck__trace_lsi_reselect(i32 noundef %0)
  ret void
}

; Function Attrs: nounwind sspstrong uwtable
define internal void @lsi_reselect(ptr noundef %s, ptr noundef %p) #0 {
entry:
  %s.addr = alloca ptr, align 8
  %p.addr = alloca ptr, align 8
  %id = alloca i32, align 4
  store ptr %s, ptr %s.addr, align 8
  store ptr %p, ptr %p.addr, align 8
  %0 = load ptr, ptr %s.addr, align 8
  %current = getelementptr inbounds %struct.LSIState, ptr %0, i32 0, i32 17
  %1 = load ptr, ptr %current, align 8
  %cmp = icmp eq ptr %1, null
  br i1 %cmp, label %if.then, label %if.else

if.then:                                          ; preds = %entry
  br label %if.end

if.else:                                          ; preds = %entry
  call void @__assert_fail(ptr noundef @.str.18, ptr noundef @.str.11, i32 noundef 701, ptr noundef @__PRETTY_FUNCTION__.lsi_reselect) #9
  unreachable

if.end:                                           ; preds = %if.then
  br label %do.body

do.body:                                          ; preds = %if.end
  %2 = load ptr, ptr %p.addr, align 8
  %next = getelementptr inbounds %struct.lsi_request, ptr %2, i32 0, i32 6
  %3 = load ptr, ptr %next, align 8
  %cmp1 = icmp ne ptr %3, null
  br i1 %cmp1, label %if.then2, label %if.else7

if.then2:                                         ; preds = %do.body
  %4 = load ptr, ptr %p.addr, align 8
  %next3 = getelementptr inbounds %struct.lsi_request, ptr %4, i32 0, i32 6
  %tql_prev = getelementptr inbounds %struct.QTailQLink, ptr %next3, i32 0, i32 1
  %5 = load ptr, ptr %tql_prev, align 8
  %6 = load ptr, ptr %p.addr, align 8
  %next4 = getelementptr inbounds %struct.lsi_request, ptr %6, i32 0, i32 6
  %7 = load ptr, ptr %next4, align 8
  %next5 = getelementptr inbounds %struct.lsi_request, ptr %7, i32 0, i32 6
  %tql_prev6 = getelementptr inbounds %struct.QTailQLink, ptr %next5, i32 0, i32 1
  store ptr %5, ptr %tql_prev6, align 8
  br label %if.end11

if.else7:                                         ; preds = %do.body
  %8 = load ptr, ptr %p.addr, align 8
  %next8 = getelementptr inbounds %struct.lsi_request, ptr %8, i32 0, i32 6
  %tql_prev9 = getelementptr inbounds %struct.QTailQLink, ptr %next8, i32 0, i32 1
  %9 = load ptr, ptr %tql_prev9, align 8
  %10 = load ptr, ptr %s.addr, align 8
  %queue = getelementptr inbounds %struct.LSIState, ptr %10, i32 0, i32 16
  %tql_prev10 = getelementptr inbounds %struct.QTailQLink, ptr %queue, i32 0, i32 1
  store ptr %9, ptr %tql_prev10, align 8
  br label %if.end11

if.end11:                                         ; preds = %if.else7, %if.then2
  %11 = load ptr, ptr %p.addr, align 8
  %next12 = getelementptr inbounds %struct.lsi_request, ptr %11, i32 0, i32 6
  %12 = load ptr, ptr %next12, align 8
  %13 = load ptr, ptr %p.addr, align 8
  %next13 = getelementptr inbounds %struct.lsi_request, ptr %13, i32 0, i32 6
  %tql_prev14 = getelementptr inbounds %struct.QTailQLink, ptr %next13, i32 0, i32 1
  %14 = load ptr, ptr %tql_prev14, align 8
  %tql_next = getelementptr inbounds %struct.QTailQLink, ptr %14, i32 0, i32 0
  store ptr %12, ptr %tql_next, align 8
  %15 = load ptr, ptr %p.addr, align 8
  %next15 = getelementptr inbounds %struct.lsi_request, ptr %15, i32 0, i32 6
  %tql_prev16 = getelementptr inbounds %struct.QTailQLink, ptr %next15, i32 0, i32 1
  store ptr null, ptr %tql_prev16, align 8
  %16 = load ptr, ptr %p.addr, align 8
  %next17 = getelementptr inbounds %struct.lsi_request, ptr %16, i32 0, i32 6
  %tql_next18 = getelementptr inbounds %struct.QTailQLink, ptr %next17, i32 0, i32 0
  store ptr null, ptr %tql_next18, align 8
  %17 = load ptr, ptr %p.addr, align 8
  %next19 = getelementptr inbounds %struct.lsi_request, ptr %17, i32 0, i32 6
  store ptr null, ptr %next19, align 8
  br label %do.end

do.end:                                           ; preds = %if.end11
  %18 = load ptr, ptr %p.addr, align 8
  %19 = load ptr, ptr %s.addr, align 8
  %current20 = getelementptr inbounds %struct.LSIState, ptr %19, i32 0, i32 17
  store ptr %18, ptr %current20, align 8
  %20 = load ptr, ptr %p.addr, align 8
  %tag = getelementptr inbounds %struct.lsi_request, ptr %20, i32 0, i32 1
  %21 = load i32, ptr %tag, align 8
  %shr = lshr i32 %21, 8
  %and = and i32 %shr, 15
  store i32 %and, ptr %id, align 4
  %22 = load i32, ptr %id, align 4
  %or = or i32 %22, 128
  %conv = trunc i32 %or to i8
  %23 = load ptr, ptr %s.addr, align 8
  %ssid = getelementptr inbounds %struct.LSIState, ptr %23, i32 0, i32 54
  store i8 %conv, ptr %ssid, align 8
  %24 = load ptr, ptr %s.addr, align 8
  %dcntl = getelementptr inbounds %struct.LSIState, ptr %24, i32 0, i32 43
  %25 = load i8, ptr %dcntl, align 1
  %conv21 = zext i8 %25 to i32
  %and22 = and i32 %conv21, 1
  %tobool = icmp ne i32 %and22, 0
  br i1 %tobool, label %if.end26, label %if.then23

if.then23:                                        ; preds = %do.end
  %26 = load i32, ptr %id, align 4
  %and24 = and i32 %26, 7
  %shl = shl i32 1, %and24
  %conv25 = trunc i32 %shl to i8
  %27 = load ptr, ptr %s.addr, align 8
  %sfbr = getelementptr inbounds %struct.LSIState, ptr %27, i32 0, i32 55
  store i8 %conv25, ptr %sfbr, align 1
  br label %if.end26

if.end26:                                         ; preds = %if.then23, %do.end
  %28 = load i32, ptr %id, align 4
  call void @trace_lsi_reselect(i32 noundef %28)
  %29 = load ptr, ptr %s.addr, align 8
  %scntl1 = getelementptr inbounds %struct.LSIState, ptr %29, i32 0, i32 45
  %30 = load i8, ptr %scntl1, align 1
  %conv27 = zext i8 %30 to i32
  %or28 = or i32 %conv27, 16
  %conv29 = trunc i32 %or28 to i8
  store i8 %conv29, ptr %scntl1, align 1
  %31 = load ptr, ptr %s.addr, align 8
  call void @lsi_set_phase(ptr noundef %31, i32 noundef 7)
  %32 = load ptr, ptr %p.addr, align 8
  %out = getelementptr inbounds %struct.lsi_request, ptr %32, i32 0, i32 5
  %33 = load i32, ptr %out, align 4
  %tobool30 = icmp ne i32 %33, 0
  %cond = select i1 %tobool30, i32 2, i32 3
  %34 = load ptr, ptr %s.addr, align 8
  %msg_action = getelementptr inbounds %struct.LSIState, ptr %34, i32 0, i32 8
  store i32 %cond, ptr %msg_action, align 16
  %35 = load ptr, ptr %p.addr, align 8
  %pending = getelementptr inbounds %struct.lsi_request, ptr %35, i32 0, i32 4
  %36 = load i32, ptr %pending, align 8
  %37 = load ptr, ptr %s.addr, align 8
  %current31 = getelementptr inbounds %struct.LSIState, ptr %37, i32 0, i32 17
  %38 = load ptr, ptr %current31, align 8
  %dma_len = getelementptr inbounds %struct.lsi_request, ptr %38, i32 0, i32 2
  store i32 %36, ptr %dma_len, align 4
  %39 = load ptr, ptr %s.addr, align 8
  call void @lsi_add_msg_byte(ptr noundef %39, i8 noundef zeroext -128)
  %40 = load ptr, ptr %s.addr, align 8
  %current32 = getelementptr inbounds %struct.LSIState, ptr %40, i32 0, i32 17
  %41 = load ptr, ptr %current32, align 8
  %tag33 = getelementptr inbounds %struct.lsi_request, ptr %41, i32 0, i32 1
  %42 = load i32, ptr %tag33, align 8
  %and34 = and i32 %42, 65536
  %tobool35 = icmp ne i32 %and34, 0
  br i1 %tobool35, label %if.then36, label %if.end40

if.then36:                                        ; preds = %if.end26
  %43 = load ptr, ptr %s.addr, align 8
  call void @lsi_add_msg_byte(ptr noundef %43, i8 noundef zeroext 32)
  %44 = load ptr, ptr %s.addr, align 8
  %45 = load ptr, ptr %p.addr, align 8
  %tag37 = getelementptr inbounds %struct.lsi_request, ptr %45, i32 0, i32 1
  %46 = load i32, ptr %tag37, align 8
  %and38 = and i32 %46, 255
  %conv39 = trunc i32 %and38 to i8
  call void @lsi_add_msg_byte(ptr noundef %44, i8 noundef zeroext %conv39)
  br label %if.end40

if.end40:                                         ; preds = %if.then36, %if.end26
  %47 = load ptr, ptr %s.addr, align 8
  %call = call i32 @lsi_irq_on_rsl(ptr noundef %47)
  %tobool41 = icmp ne i32 %call, 0
  br i1 %tobool41, label %if.then42, label %if.end43

if.then42:                                        ; preds = %if.end40
  %48 = load ptr, ptr %s.addr, align 8
  call void @lsi_script_scsi_interrupt(ptr noundef %48, i32 noundef 16, i32 noundef 0)
  br label %if.end43

if.end43:                                         ; preds = %if.then42, %if.end40
  ret void
}