; Function Attrs: nounwind sspstrong uwtable
define internal fastcc void @lsi_reselect(ptr noundef %s, ptr noundef %p) unnamed_addr #0 {
entry:
  %_now.i.i = alloca %struct.timeval, align 8
  %current = getelementptr inbounds nuw i8, ptr %s, i64 3736
  %0 = load ptr, ptr %current, align 8
  %cmp = icmp eq ptr %0, null
  br i1 %cmp, label %do.body, label %if.else

if.else:                                          ; preds = %entry
  tail call void @__assert_fail(ptr noundef nonnull @.str.18, ptr noundef nonnull @.str.11, i32 noundef 701, ptr noundef nonnull @__PRETTY_FUNCTION__.lsi_reselect) #13
  unreachable

do.body:                                          ; preds = %entry
  %next = getelementptr inbounds nuw i8, ptr %p, i64 32
  %1 = load ptr, ptr %next, align 8
  %cmp1.not = icmp eq ptr %1, null
  %tql_prev9 = getelementptr inbounds nuw i8, ptr %p, i64 40
  %2 = load ptr, ptr %tql_prev9, align 8
  br i1 %cmp1.not, label %if.else7, label %if.then2

if.then2:                                         ; preds = %do.body
  %tql_prev6 = getelementptr inbounds nuw i8, ptr %1, i64 40
  store ptr %2, ptr %tql_prev6, align 8
  br label %if.end11

if.else7:                                         ; preds = %do.body
  %tql_prev10 = getelementptr inbounds nuw i8, ptr %s, i64 3728
  store ptr %2, ptr %tql_prev10, align 8
  br label %if.end11

if.end11:                                         ; preds = %if.else7, %if.then2
  %3 = load ptr, ptr %next, align 8
  store ptr %3, ptr %2, align 8
  tail call void @llvm.memset.p0.i64(ptr noundef nonnull align 8 dereferenceable(16) %next, i8 0, i64 16, i1 false)
  store ptr %p, ptr %current, align 8
  %tag = getelementptr inbounds nuw i8, ptr %p, i64 8
  %4 = load i32, ptr %tag, align 8
  %shr = lshr i32 %4, 8
  %and = and i32 %shr, 15
  %5 = trunc nuw nsw i32 %and to i8
  %conv = or disjoint i8 %5, -128
  %ssid = getelementptr inbounds nuw i8, ptr %s, i64 3800
  store i8 %conv, ptr %ssid, align 8
  %dcntl = getelementptr inbounds nuw i8, ptr %s, i64 3789
  %6 = load i8, ptr %dcntl, align 1
  %7 = and i8 %6, 1
  %tobool.not = icmp eq i8 %7, 0
  br i1 %tobool.not, label %if.then23, label %if.end26

if.then23:                                        ; preds = %if.end11
  %and24 = and i32 %shr, 7
  %shl = shl nuw nsw i32 1, %and24
  %conv25 = trunc nuw i32 %shl to i8
  %sfbr = getelementptr inbounds nuw i8, ptr %s, i64 3801
  store i8 %conv25, ptr %sfbr, align 1
  br label %if.end26

if.end26:                                         ; preds = %if.then23, %if.end11
  call void @llvm.lifetime.start.p0(i64 16, ptr nonnull %_now.i.i)
  %8 = load i32, ptr @trace_events_enabled_count, align 4
  %tobool.i.i = icmp ne i32 %8, 0
  %9 = load i16, ptr @_TRACE_LSI_RESELECT_DSTATE, align 2
  %tobool4.i.i = icmp ne i16 %9, 0
  %or.cond.i.i = select i1 %tobool.i.i, i1 %tobool4.i.i, i1 false
  br i1 %or.cond.i.i, label %land.lhs.true5.i.i, label %trace_lsi_reselect.exit

land.lhs.true5.i.i:                               ; preds = %if.end26
  %10 = load i32, ptr @qemu_loglevel, align 4
  %and.i.i.i = and i32 %10, 32768
  %cmp.i.not.i.i = icmp eq i32 %and.i.i.i, 0
  br i1 %cmp.i.not.i.i, label %trace_lsi_reselect.exit, label %if.then.i.i

if.then.i.i:                                      ; preds = %land.lhs.true5.i.i
  %11 = load i8, ptr @message_with_timestamp, align 1
  %tobool7.i.i = trunc i8 %11 to i1
  br i1 %tobool7.i.i, label %if.then8.i.i, label %if.else.i.i

if.then8.i.i:                                     ; preds = %if.then.i.i
  %call9.i.i = call i32 @gettimeofday(ptr noundef nonnull %_now.i.i, ptr noundef null) #12
  %call10.i.i = tail call i32 @qemu_get_thread_id() #12
  %12 = load i64, ptr %_now.i.i, align 8
  %tv_usec.i.i = getelementptr inbounds nuw i8, ptr %_now.i.i, i64 8
  %13 = load i64, ptr %tv_usec.i.i, align 8
  tail call void (ptr, ...) @qemu_log(ptr noundef nonnull @.str.19, i32 noundef %call10.i.i, i64 noundef %12, i64 noundef %13, i32 noundef range(i32 0, 16) %and) #12
  br label %trace_lsi_reselect.exit

if.else.i.i:                                      ; preds = %if.then.i.i
  tail call void (ptr, ...) @qemu_log(ptr noundef nonnull @.str.20, i32 noundef range(i32 0, 16) %and) #12
  br label %trace_lsi_reselect.exit

trace_lsi_reselect.exit:                          ; preds = %if.end26, %land.lhs.true5.i.i, %if.then8.i.i, %if.else.i.i
  call void @llvm.lifetime.end.p0(i64 16, ptr nonnull %_now.i.i)
  %scntl1 = getelementptr inbounds nuw i8, ptr %s, i64 3791
  %14 = load i8, ptr %scntl1, align 1
  %15 = or i8 %14, 16
  store i8 %15, ptr %scntl1, align 1
  %sbcl.i = getelementptr inbounds nuw i8, ptr %s, i64 3802
  %16 = load i8, ptr %sbcl.i, align 2
  %conv5.i = or i8 %16, -121
  store i8 %conv5.i, ptr %sbcl.i, align 2
  %sstat1.i = getelementptr inbounds nuw i8, ptr %s, i64 3795
  %17 = load i8, ptr %sstat1.i, align 1
  %conv9.i = or i8 %17, 7
  store i8 %conv9.i, ptr %sstat1.i, align 1
  %out = getelementptr inbounds nuw i8, ptr %p, i64 28
  %18 = load i32, ptr %out, align 4
  %tobool30.not = icmp eq i32 %18, 0
  %cond = select i1 %tobool30.not, i32 3, i32 2
  %msg_action = getelementptr inbounds nuw i8, ptr %s, i64 3536
  store i32 %cond, ptr %msg_action, align 16
  %pending = getelementptr inbounds nuw i8, ptr %p, i64 24
  %19 = load i32, ptr %pending, align 8
  %20 = load ptr, ptr %current, align 8
  %dma_len = getelementptr inbounds nuw i8, ptr %20, i64 12
  store i32 %19, ptr %dma_len, align 4
  tail call fastcc void @lsi_add_msg_byte(ptr noundef nonnull %s, i8 noundef zeroext -128)
  %21 = load ptr, ptr %current, align 8
  %tag33 = getelementptr inbounds nuw i8, ptr %21, i64 8
  %22 = load i32, ptr %tag33, align 8
  %and34 = and i32 %22, 65536
  %tobool35.not = icmp eq i32 %and34, 0
  br i1 %tobool35.not, label %if.end40, label %if.then36

if.then36:                                        ; preds = %trace_lsi_reselect.exit
  tail call fastcc void @lsi_add_msg_byte(ptr noundef nonnull %s, i8 noundef zeroext 32)
  %23 = load i32, ptr %tag, align 8
  %conv39 = trunc i32 %23 to i8
  tail call fastcc void @lsi_add_msg_byte(ptr noundef nonnull %s, i8 noundef zeroext %conv39)
  br label %if.end40

if.end40:                                         ; preds = %if.then36, %trace_lsi_reselect.exit
  %sien0.i = getelementptr inbounds nuw i8, ptr %s, i64 3767
  %24 = load i8, ptr %sien0.i, align 1
  %25 = and i8 %24, 16
  %tobool.not.i = icmp eq i8 %25, 0
  br i1 %tobool.not.i, label %if.end43, label %lsi_irq_on_rsl.exit

lsi_irq_on_rsl.exit:                              ; preds = %if.end40
  %scid.i = getelementptr inbounds nuw i8, ptr %s, i64 3796
  %26 = load i8, ptr %scid.i, align 4
  %27 = and i8 %26, 96
  %tobool3.i.not = icmp eq i8 %27, 0
  br i1 %tobool3.i.not, label %if.end43, label %if.then42

if.then42:                                        ; preds = %lsi_irq_on_rsl.exit
  tail call fastcc void @lsi_script_scsi_interrupt(ptr noundef nonnull %s, i32 noundef 16, i32 noundef 0)
  br label %if.end43

if.end43:                                         ; preds = %if.end40, %if.then42, %lsi_irq_on_rsl.exit
  ret void
}